; ModuleID = '24/281.c'
source_filename = "24/281.c"
target datalayout = "e-m:e-p270:32:32-p271:32:32-p272:64:64-i64:64-f80:128-n8:16:32:64-S128"
target triple = "x86_64-pc-linux-gnu"

@.str = private unnamed_addr constant [3 x i8] c"%s\00", align 1
@.str.1 = private unnamed_addr constant [4 x i8] c"%s\0A\00", align 1

; Function Attrs: noinline nounwind uwtable
define dso_local i32 @main() #0 {
  %1 = alloca i32, align 4
  %2 = alloca [50 x [30 x i8]], align 16
  %3 = alloca i32, align 4
  %4 = alloca i32, align 4
  %5 = alloca [50 x i32], align 16
  %6 = alloca i32, align 4
  %7 = alloca i32, align 4
  %8 = alloca i32, align 4
  %9 = alloca i32, align 4
  store i32 0, i32* %1, align 4
  store i32 0, i32* %3, align 4
  store i32 0, i32* %4, align 4
  br label %10

10:                                               ; preds = %25, %0
  %11 = load i32, i32* %4, align 4
  %12 = sext i32 %11 to i64
  %13 = getelementptr inbounds [50 x [30 x i8]], [50 x [30 x i8]]* %2, i64 0, i64 %12
  %14 = call i32 (i8*, ...) @__isoc99_scanf(i8* getelementptr inbounds ([3 x i8], [3 x i8]* @.str, i64 0, i64 0), [30 x i8]* %13)
  %15 = icmp sgt i32 %14, 0
  br i1 %15, label %16, label %23

16:                                               ; preds = %10
  %17 = load i32, i32* %4, align 4
  %18 = sext i32 %17 to i64
  %19 = getelementptr inbounds [50 x [30 x i8]], [50 x [30 x i8]]* %2, i64 0, i64 %18
  %20 = getelementptr inbounds [30 x i8], [30 x i8]* %19, i64 0, i64 0
  %21 = call i64 @strlen(i8* %20) #3
  %22 = icmp ugt i64 %21, 0
  br label %23

23:                                               ; preds = %16, %10
  %24 = phi i1 [ false, %10 ], [ %22, %16 ]
  br i1 %24, label %25, label %30

25:                                               ; preds = %23
  %26 = load i32, i32* %3, align 4
  %27 = add nsw i32 %26, 1
  store i32 %27, i32* %3, align 4
  %28 = load i32, i32* %4, align 4
  %29 = add nsw i32 %28, 1
  store i32 %29, i32* %4, align 4
  br label %10

30:                                               ; preds = %23
  store i32 0, i32* %4, align 4
  br label %31

31:                                               ; preds = %45, %30
  %32 = load i32, i32* %4, align 4
  %33 = load i32, i32* %3, align 4
  %34 = icmp slt i32 %32, %33
  br i1 %34, label %35, label %48

35:                                               ; preds = %31
  %36 = load i32, i32* %4, align 4
  %37 = sext i32 %36 to i64
  %38 = getelementptr inbounds [50 x [30 x i8]], [50 x [30 x i8]]* %2, i64 0, i64 %37
  %39 = getelementptr inbounds [30 x i8], [30 x i8]* %38, i64 0, i64 0
  %40 = call i64 @strlen(i8* %39) #3
  %41 = trunc i64 %40 to i32
  %42 = load i32, i32* %4, align 4
  %43 = sext i32 %42 to i64
  %44 = getelementptr inbounds [50 x i32], [50 x i32]* %5, i64 0, i64 %43
  store i32 %41, i32* %44, align 4
  br label %45

45:                                               ; preds = %35
  %46 = load i32, i32* %4, align 4
  %47 = add nsw i32 %46, 1
  store i32 %47, i32* %4, align 4
  br label %31

48:                                               ; preds = %31
  store i32 30, i32* %6, align 4
  store i32 0, i32* %7, align 4
  store i32 0, i32* %4, align 4
  br label %49

49:                                               ; preds = %80, %48
  %50 = load i32, i32* %4, align 4
  %51 = load i32, i32* %3, align 4
  %52 = icmp slt i32 %50, %51
  br i1 %52, label %53, label %83

53:                                               ; preds = %49
  %54 = load i32, i32* %4, align 4
  %55 = sext i32 %54 to i64
  %56 = getelementptr inbounds [50 x i32], [50 x i32]* %5, i64 0, i64 %55
  %57 = load i32, i32* %56, align 4
  %58 = load i32, i32* %6, align 4
  %59 = icmp slt i32 %57, %58
  br i1 %59, label %60, label %66

60:                                               ; preds = %53
  %61 = load i32, i32* %4, align 4
  %62 = sext i32 %61 to i64
  %63 = getelementptr inbounds [50 x i32], [50 x i32]* %5, i64 0, i64 %62
  %64 = load i32, i32* %63, align 4
  store i32 %64, i32* %6, align 4
  %65 = load i32, i32* %4, align 4
  store i32 %65, i32* %8, align 4
  br label %66

66:                                               ; preds = %60, %53
  %67 = load i32, i32* %4, align 4
  %68 = sext i32 %67 to i64
  %69 = getelementptr inbounds [50 x i32], [50 x i32]* %5, i64 0, i64 %68
  %70 = load i32, i32* %69, align 4
  %71 = load i32, i32* %7, align 4
  %72 = icmp sgt i32 %70, %71
  br i1 %72, label %73, label %79

73:                                               ; preds = %66
  %74 = load i32, i32* %4, align 4
  %75 = sext i32 %74 to i64
  %76 = getelementptr inbounds [50 x i32], [50 x i32]* %5, i64 0, i64 %75
  %77 = load i32, i32* %76, align 4
  store i32 %77, i32* %7, align 4
  %78 = load i32, i32* %4, align 4
  store i32 %78, i32* %9, align 4
  br label %79

79:                                               ; preds = %73, %66
  br label %80

80:                                               ; preds = %79
  %81 = load i32, i32* %4, align 4
  %82 = add nsw i32 %81, 1
  store i32 %82, i32* %4, align 4
  br label %49

83:                                               ; preds = %49
  %84 = load i32, i32* %9, align 4
  %85 = sext i32 %84 to i64
  %86 = getelementptr inbounds [50 x [30 x i8]], [50 x [30 x i8]]* %2, i64 0, i64 %85
  %87 = getelementptr inbounds [30 x i8], [30 x i8]* %86, i64 0, i64 0
  %88 = call i32 (i8*, ...) @printf(i8* getelementptr inbounds ([4 x i8], [4 x i8]* @.str.1, i64 0, i64 0), i8* %87)
  %89 = load i32, i32* %8, align 4
  %90 = sext i32 %89 to i64
  %91 = getelementptr inbounds [50 x [30 x i8]], [50 x [30 x i8]]* %2, i64 0, i64 %90
  %92 = getelementptr inbounds [30 x i8], [30 x i8]* %91, i64 0, i64 0
  %93 = call i32 (i8*, ...) @printf(i8* getelementptr inbounds ([4 x i8], [4 x i8]* @.str.1, i64 0, i64 0), i8* %92)
  ret i32 0
}

declare dso_local i32 @__isoc99_scanf(i8*, ...) #1

; Function Attrs: nounwind readonly
declare dso_local i64 @strlen(i8*) #2

declare dso_local i32 @printf(i8*, ...) #1


!llvm.module.flags = !{!0}
!llvm.ident = !{!1}

!0 = !{i32 1, !"wchar_size", i32 4}
!1 = !{!"clang version 10.0.0-4ubuntu1 "}
